; Function Attrs: nounwind uwtable
define void @up_ioapic_unmask_pin(i32 noundef %0) local_unnamed_addr #0 {
  %2 = shl i32 %0, 1
  %3 = add i32 %2, 16
  tail call void asm sideeffect "movl $0,($1)", "r,r,~{dirflag},~{fpsr},~{flags}"(i32 %3, ptr nonnull inttoptr (i64 4273995776 to ptr)) #4, !srcloc !6
  %4 = tail call i32 asm sideeffect "movl ($1),$0", "=r,r,~{dirflag},~{fpsr},~{flags}"(ptr nonnull inttoptr (i64 4273995792 to ptr)) #4, !srcloc !7
  %5 = and i32 %4, -65537
  tail call void asm sideeffect "movl $0,($1)", "r,r,~{dirflag},~{fpsr},~{flags}"(i32 %3, ptr nonnull inttoptr (i64 4273995776 to ptr)) #4, !srcloc !6
  tail call void asm sideeffect "movl $0,($1)", "r,r,~{dirflag},~{fpsr},~{flags}"(i32 %5, ptr nonnull inttoptr (i64 4273995792 to ptr)) #4, !srcloc !6
  ret void
}